#include <math.h>
#include <stdio.h>
#include <stdlib.h>
#include <string.h>

int main()
{
	int n,b;
	int m[20002];
	int i=1;
	int a=2;
	int num;
	scanf("%d",&n);
	do
	{
		scanf("%d",&m[i]);
		i++;
	}while(i<=n);
	if(n==1)
	{printf("%d",m[1]);}
	else
	{
		printf("%d",m[1]);
		do
		{
			b=1;
			do
			{ 
				num=0;
				if(m[b]==m[a]){num++;break;}
				else{b++;}
			}while(b<a);
			if(num==0){printf(" %d",m[a]);}
			else{}
			a++;
		}while(a<=n);
	}
	return 0;
}
	