; ModuleID = 'source-C-CXX/12/798.c'
source_filename = "source-C-CXX/12/798.c"
target datalayout = "e-m:e-p270:32:32-p271:32:32-p272:64:64-i64:64-f80:128-n8:16:32:64-S128"
target triple = "x86_64-pc-linux-gnu"

@.str = private unnamed_addr constant [3 x i8] c"%d\00", align 1
@.str.1 = private unnamed_addr constant [4 x i8] c" %d\00", align 1

; Function Attrs: nofree nounwind sspstrong uwtable
define dso_local i32 @main() local_unnamed_addr #0 {
  %1 = alloca i32, align 4
  %2 = alloca [20002 x i32], align 16
  %3 = bitcast i32* %1 to i8*
  call void @llvm.lifetime.start.p0i8(i64 4, i8* nonnull %3) #3
  %4 = bitcast [20002 x i32]* %2 to i8*
  call void @llvm.lifetime.start.p0i8(i64 80008, i8* nonnull %4) #3
  %5 = call i32 (i8*, ...) @__isoc99_scanf(i8* getelementptr inbounds ([3 x i8], [3 x i8]* @.str, i64 0, i64 0), i32* nonnull %1)
  br label %6

6:                                                ; preds = %6, %0
  %7 = phi i64 [ %10, %6 ], [ 1, %0 ]
  %8 = getelementptr inbounds [20002 x i32], [20002 x i32]* %2, i64 0, i64 %7
  %9 = call i32 (i8*, ...) @__isoc99_scanf(i8* getelementptr inbounds ([3 x i8], [3 x i8]* @.str, i64 0, i64 0), i32* nonnull %8)
  %10 = add nuw nsw i64 %7, 1
  %11 = load i32, i32* %1, align 4, !tbaa !5
  %12 = sext i32 %11 to i64
  %13 = icmp slt i64 %7, %12
  br i1 %13, label %6, label %14, !llvm.loop !9

14:                                               ; preds = %6
  %15 = icmp eq i32 %11, 1
  %16 = getelementptr inbounds [20002 x i32], [20002 x i32]* %2, i64 0, i64 1
  %17 = load i32, i32* %16, align 4, !tbaa !5
  %18 = call i32 (i8*, ...) @printf(i8* nonnull dereferenceable(1) getelementptr inbounds ([3 x i8], [3 x i8]* @.str, i64 0, i64 0), i32 %17)
  br i1 %15, label %40, label %19

19:                                               ; preds = %14, %35
  %20 = phi i64 [ %36, %35 ], [ 2, %14 ]
  %21 = getelementptr inbounds [20002 x i32], [20002 x i32]* %2, i64 0, i64 %20
  %22 = load i32, i32* %21, align 4, !tbaa !5
  br label %23

23:                                               ; preds = %23, %19
  %24 = phi i64 [ %29, %23 ], [ 1, %19 ]
  %25 = getelementptr inbounds [20002 x i32], [20002 x i32]* %2, i64 0, i64 %24
  %26 = load i32, i32* %25, align 4, !tbaa !5
  %27 = icmp eq i32 %26, %22
  %28 = xor i1 %27, true
  %29 = add nuw nsw i64 %24, 1
  %30 = icmp ult i64 %29, %20
  %31 = select i1 %28, i1 %30, i1 false
  br i1 %31, label %23, label %32, !llvm.loop !11

32:                                               ; preds = %23
  br i1 %27, label %35, label %33

33:                                               ; preds = %32
  %34 = call i32 (i8*, ...) @printf(i8* nonnull dereferenceable(1) getelementptr inbounds ([4 x i8], [4 x i8]* @.str.1, i64 0, i64 0), i32 %22)
  br label %35

35:                                               ; preds = %32, %33
  %36 = add nuw nsw i64 %20, 1
  %37 = load i32, i32* %1, align 4, !tbaa !5
  %38 = sext i32 %37 to i64
  %39 = icmp slt i64 %20, %38
  br i1 %39, label %19, label %40, !llvm.loop !12

40:                                               ; preds = %35, %14
  call void @llvm.lifetime.end.p0i8(i64 80008, i8* nonnull %4) #3
  call void @llvm.lifetime.end.p0i8(i64 4, i8* nonnull %3) #3
  ret i32 0
}

; Function Attrs: argmemonly mustprogress nofree nosync nounwind willreturn
declare void @llvm.lifetime.start.p0i8(i64 immarg, i8* nocapture) #1

; Function Attrs: nofree nounwind
declare noundef i32 @__isoc99_scanf(i8* nocapture noundef readonly, ...) local_unnamed_addr #2

; Function Attrs: nofree nounwind
declare noundef i32 @printf(i8* nocapture noundef readonly, ...) local_unnamed_addr #2

; Function Attrs: argmemonly mustprogress nofree nosync nounwind willreturn
declare void @llvm.lifetime.end.p0i8(i64 immarg, i8* nocapture) #1


!llvm.module.flags = !{!0, !1, !2, !3}
!llvm.ident = !{!4}

!0 = !{i32 1, !"wchar_size", i32 4}
!1 = !{i32 7, !"PIC Level", i32 2}
!2 = !{i32 7, !"PIE Level", i32 2}
!3 = !{i32 7, !"uwtable", i32 1}
!4 = !{!"clang version 13.0.0"}
!5 = !{!6, !6, i64 0}
!6 = !{!"int", !7, i64 0}
!7 = !{!"omnipotent char", !8, i64 0}
!8 = !{!"Simple C/C++ TBAA"}
!9 = distinct !{!9, !10}
!10 = !{!"llvm.loop.mustprogress"}
!11 = distinct !{!11, !10}
!12 = distinct !{!12, !10}
